target datalayout = "e-m:e-p270:32:32-p271:32:32-p272:64:64-i64:64-i128:128-f80:128-n8:16:32:64-S128"
target triple = "x86_64-pc-linux-gnu"

%"struct.OpenImageIO::v3_1_0::TypeDesc" = type { i8, i8, i8, i8, i32 }
%"struct.OpenImageIO::v3_1_0::TagInfo" = type { i32, ptr, i32, i32, ptr }
%"class.OpenImageIO::v3_1_0::basic_string_view" = type { ptr, i64 }
%struct.TIFFDirEntry = type { i16, i16, i32, i32 }
%"class.OpenImageIO::v3_1_0::span.20" = type { ptr, i64 }

@_ZZN11OpenImageIO6v3_1_014tiff_data_sizeE12TIFFDataTypeE5sizes = internal global [14 x i64] [i64 0, i64 1, i64 1, i64 2, i64 4, i64 8, i64 1, i64 1, i64 2, i64 4, i64 8, i64 4, i64 8, i64 4], align 16

; Function Attrs: alwaysinline mustprogress nounwind uwtable
define linkonce_odr hidden noundef i32 @_ZN11OpenImageIO6v3_1_07bitcastIi12TIFFDataTypeEET_RKT0_(ptr noundef nonnull align 4 dereferenceable(4) %0) #10 comdat {
  %2 = alloca ptr, align 8
  %3 = alloca i32, align 4
  store ptr %0, ptr %2, align 8, !tbaa !67
  call void @llvm.lifetime.start.p0(i64 4, ptr %3) #3
  %4 = load ptr, ptr %2, align 8, !tbaa !67
  call void @llvm.memcpy.p0.p0.i64(ptr align 1 %3, ptr align 4 %4, i64 4, i1 false)
  %5 = load i32, ptr %3, align 4, !tbaa !32
  call void @llvm.lifetime.end.p0(i64 4, ptr %3) #3
  ret i32 %5
}

; Function Attrs: mustprogress nounwind uwtable
define linkonce_odr hidden noundef i64 @_ZNK11OpenImageIO6v3_1_04spanIKhLm18446744073709551615EE4sizeEv(ptr noundef nonnull align 8 dereferenceable(16) %0) #7 comdat align 2 {
  %2 = alloca ptr, align 8
  store ptr %0, ptr %2, align 8, !tbaa !91
  %3 = load ptr, ptr %2, align 8
  %4 = getelementptr inbounds nuw %"class.OpenImageIO::v3_1_0::span.20", ptr %3, i32 0, i32 1
  %5 = load i64, ptr %4, align 8, !tbaa !95
  ret i64 %5
}

; Function Attrs: mustprogress nounwind uwtable
define linkonce_odr void @_ZN11OpenImageIO6v3_1_08TypeDescC2ENS1_8BASETYPEENS1_9AGGREGATEENS1_12VECSEMANTICSEi(ptr noundef nonnull align 4 dereferenceable(8) %0, i32 noundef %1, i32 noundef %2, i32 noundef %3, i32 noundef %4) unnamed_addr #7 comdat align 2 {
  %6 = alloca ptr, align 8
  %7 = alloca i32, align 4
  %8 = alloca i32, align 4
  %9 = alloca i32, align 4
  %10 = alloca i32, align 4
  store ptr %0, ptr %6, align 8, !tbaa !76
  store i32 %1, ptr %7, align 4, !tbaa !78
  store i32 %2, ptr %8, align 4, !tbaa !80
  store i32 %3, ptr %9, align 4, !tbaa !82
  store i32 %4, ptr %10, align 4, !tbaa !32
  %11 = load ptr, ptr %6, align 8
  %12 = getelementptr inbounds nuw %"struct.OpenImageIO::v3_1_0::TypeDesc", ptr %11, i32 0, i32 0
  %13 = load i32, ptr %7, align 4, !tbaa !78
  %14 = trunc i32 %13 to i8
  store i8 %14, ptr %12, align 4, !tbaa !84
  %15 = getelementptr inbounds nuw %"struct.OpenImageIO::v3_1_0::TypeDesc", ptr %11, i32 0, i32 1
  %16 = load i32, ptr %8, align 4, !tbaa !80
  %17 = trunc i32 %16 to i8
  store i8 %17, ptr %15, align 1, !tbaa !86
  %18 = getelementptr inbounds nuw %"struct.OpenImageIO::v3_1_0::TypeDesc", ptr %11, i32 0, i32 2
  %19 = load i32, ptr %9, align 4, !tbaa !82
  %20 = trunc i32 %19 to i8
  store i8 %20, ptr %18, align 2, !tbaa !87
  %21 = getelementptr inbounds nuw %"struct.OpenImageIO::v3_1_0::TypeDesc", ptr %11, i32 0, i32 3
  store i8 0, ptr %21, align 1, !tbaa !88
  %22 = getelementptr inbounds nuw %"struct.OpenImageIO::v3_1_0::TypeDesc", ptr %11, i32 0, i32 4
  %23 = load i32, ptr %10, align 4, !tbaa !32
  store i32 %23, ptr %22, align 4, !tbaa !89
  ret void
}

; Function Attrs: mustprogress nounwind uwtable
define linkonce_odr noundef i64 @_ZNSt11char_traitsIcE6lengthEPKc(ptr noundef %0) #7 comdat align 2 {
  %2 = alloca ptr, align 8
  store ptr %0, ptr %2, align 8, !tbaa !64
  %3 = load ptr, ptr %2, align 8, !tbaa !64
  %4 = call i64 @strlen(ptr noundef %3) #3
  ret i64 %4
}

; Function Attrs: mustprogress nounwind uwtable
define noundef i64 @_ZN11OpenImageIO6v3_1_014tiff_data_sizeE12TIFFDataType(i32 noundef %0) #7 {
  %2 = alloca i64, align 8
  %3 = alloca i32, align 4
  %4 = alloca i32, align 4
  %5 = alloca i32, align 4
  %6 = alloca i32, align 4
  store i32 %0, ptr %3, align 4, !tbaa !66
  call void @llvm.lifetime.start.p0(i64 4, ptr %4) #3
  store i32 14, ptr %4, align 4, !tbaa !32
  call void @llvm.lifetime.start.p0(i64 4, ptr %5) #3
  %7 = call noundef i32 @_ZN11OpenImageIO6v3_1_07bitcastIi12TIFFDataTypeEET_RKT0_(ptr noundef nonnull align 4 dereferenceable(4) %3) #3
  store i32 %7, ptr %5, align 4, !tbaa !32
  %8 = load i32, ptr %5, align 4, !tbaa !32
  %9 = icmp slt i32 %8, 0
  br i1 %9, label %13, label %10

10:                                               ; preds = %1
  %11 = load i32, ptr %5, align 4, !tbaa !32
  %12 = icmp sge i32 %11, 14
  br i1 %12, label %13, label %14

13:                                               ; preds = %10, %1
  store i64 -1, ptr %2, align 8
  store i32 1, ptr %6, align 4
  br label %19

14:                                               ; preds = %10
  %15 = load i32, ptr %5, align 4, !tbaa !32
  %16 = sext i32 %15 to i64
  %17 = getelementptr inbounds [14 x i64], ptr @_ZZN11OpenImageIO6v3_1_014tiff_data_sizeE12TIFFDataTypeE5sizes, i64 0, i64 %16
  %18 = load i64, ptr %17, align 8, !tbaa !13
  store i64 %18, ptr %2, align 8
  store i32 1, ptr %6, align 4
  br label %19

19:                                               ; preds = %14, %13
  call void @llvm.lifetime.end.p0(i64 4, ptr %5) #3
  call void @llvm.lifetime.end.p0(i64 4, ptr %4) #3
  %20 = load i64, ptr %2, align 8
  ret i64 %20
}

; Function Attrs: mustprogress nounwind uwtable
define linkonce_odr hidden noundef ptr @_ZNK11OpenImageIO6v3_1_04spanIKhLm18446744073709551615EE4dataEv(ptr noundef nonnull align 8 dereferenceable(16) %0) #7 comdat align 2 {
  %2 = alloca ptr, align 8
  store ptr %0, ptr %2, align 8, !tbaa !91
  %3 = load ptr, ptr %2, align 8
  %4 = getelementptr inbounds nuw %"class.OpenImageIO::v3_1_0::span.20", ptr %3, i32 0, i32 0
  %5 = load ptr, ptr %4, align 8, !tbaa !93
  ret ptr %5
}

; Function Attrs: mustprogress nounwind uwtable
define linkonce_odr hidden noundef i64 @_ZSt4sizeIKhLm18446744073709551615EEmRKN11OpenImageIO6v3_1_04spanIT_XT0_EEE(ptr noundef nonnull align 8 dereferenceable(16) %0) #7 comdat {
  %2 = alloca ptr, align 8
  store ptr %0, ptr %2, align 8, !tbaa !91
  %3 = load ptr, ptr %2, align 8, !tbaa !91
  %4 = call noundef i64 @_ZNK11OpenImageIO6v3_1_04spanIKhLm18446744073709551615EE4sizeEv(ptr noundef nonnull align 8 dereferenceable(16) %3) #3
  ret i64 %4
}

; Function Attrs: mustprogress nounwind uwtable
define linkonce_odr void @_ZN11OpenImageIO6v3_1_08TypeDescC2ENS1_8BASETYPEEi(ptr noundef nonnull align 4 dereferenceable(8) %0, i32 noundef %1, i32 noundef %2) unnamed_addr #7 comdat align 2 {
  %4 = alloca ptr, align 8
  %5 = alloca i32, align 4
  %6 = alloca i32, align 4
  store ptr %0, ptr %4, align 8, !tbaa !76
  store i32 %1, ptr %5, align 4, !tbaa !78
  store i32 %2, ptr %6, align 4, !tbaa !32
  %7 = load ptr, ptr %4, align 8
  %8 = load i32, ptr %5, align 4, !tbaa !78
  %9 = load i32, ptr %6, align 4, !tbaa !32
  call void @_ZN11OpenImageIO6v3_1_08TypeDescC2ENS1_8BASETYPEENS1_9AGGREGATEENS1_12VECSEMANTICSEi(ptr noundef nonnull align 4 dereferenceable(8) %7, i32 noundef %8, i32 noundef 1, i32 noundef 0, i32 noundef %9) #3
  ret void
}

; Function Attrs: mustprogress nounwind uwtable
define linkonce_odr hidden void @_ZN11OpenImageIO6v3_1_017basic_string_viewIcSt11char_traitsIcEEC2EPKc(ptr noundef nonnull align 8 dereferenceable(16) %0, ptr noundef %1) unnamed_addr #7 comdat align 2 {
  %3 = alloca ptr, align 8
  %4 = alloca ptr, align 8
  store ptr %0, ptr %3, align 8, !tbaa !8
  store ptr %1, ptr %4, align 8, !tbaa !64
  %5 = load ptr, ptr %3, align 8
  %6 = getelementptr inbounds nuw %"class.OpenImageIO::v3_1_0::basic_string_view", ptr %5, i32 0, i32 0
  %7 = load ptr, ptr %4, align 8, !tbaa !64
  store ptr %7, ptr %6, align 8, !tbaa !15
  %8 = getelementptr inbounds nuw %"class.OpenImageIO::v3_1_0::basic_string_view", ptr %5, i32 0, i32 1
  %9 = load ptr, ptr %4, align 8, !tbaa !64
  %10 = icmp ne ptr %9, null
  br i1 %10, label %11, label %14

11:                                               ; preds = %2
  %12 = load ptr, ptr %4, align 8, !tbaa !64
  %13 = call noundef i64 @_ZNSt11char_traitsIcE6lengthEPKc(ptr noundef %12)
  br label %15

14:                                               ; preds = %2
  br label %15

15:                                               ; preds = %14, %11
  %16 = phi i64 [ %13, %11 ], [ 0, %14 ]
  store i64 %16, ptr %8, align 8, !tbaa !18
  ret void
}

; Function Attrs: mustprogress nounwind uwtable
define noundef i64 @_ZN11OpenImageIO6v3_1_014tiff_data_sizeERK12TIFFDirEntry(ptr noundef nonnull align 4 dereferenceable(12) %0) #7 {
  %2 = alloca ptr, align 8
  store ptr %0, ptr %2, align 8, !tbaa !68
  %3 = load ptr, ptr %2, align 8, !tbaa !68
  %4 = getelementptr inbounds nuw %struct.TIFFDirEntry, ptr %3, i32 0, i32 1
  %5 = load i16, ptr %4, align 2, !tbaa !70
  %6 = zext i16 %5 to i32
  %7 = call noundef i64 @_ZN11OpenImageIO6v3_1_014tiff_data_sizeE12TIFFDataType(i32 noundef %6)
  %8 = load ptr, ptr %2, align 8, !tbaa !68
  %9 = getelementptr inbounds nuw %struct.TIFFDirEntry, ptr %8, i32 0, i32 2
  %10 = load i32, ptr %9, align 4, !tbaa !73
  %11 = zext i32 %10 to i64
  %12 = mul i64 %7, %11
  ret i64 %12
}

; Function Attrs: inlinehint mustprogress uwtable
define linkonce_odr hidden noundef ptr @_ZN11OpenImageIO6v3_1_03pvt7dataptrERK12TIFFDirEntryNS0_4spanIKhLm18446744073709551615EEEi(ptr noundef nonnull align 4 dereferenceable(12) %0, ptr %1, i64 %2, i32 noundef %3) #12 comdat {
  %5 = alloca ptr, align 8
  %6 = alloca %"class.OpenImageIO::v3_1_0::span.20", align 8
  %7 = alloca ptr, align 8
  %8 = alloca i32, align 4
  %9 = alloca i64, align 8
  %10 = alloca i32, align 4
  %11 = alloca i32, align 4
  %12 = getelementptr inbounds nuw { ptr, i64 }, ptr %6, i32 0, i32 0
  store ptr %1, ptr %12, align 8
  %13 = getelementptr inbounds nuw { ptr, i64 }, ptr %6, i32 0, i32 1
  store i64 %2, ptr %13, align 8
  store ptr %0, ptr %7, align 8, !tbaa !68
  store i32 %3, ptr %8, align 4, !tbaa !32
  call void @llvm.lifetime.start.p0(i64 8, ptr %9) #3
  %14 = load ptr, ptr %7, align 8, !tbaa !68
  %15 = call noundef i64 @_ZN11OpenImageIO6v3_1_014tiff_data_sizeERK12TIFFDirEntry(ptr noundef nonnull align 4 dereferenceable(12) %14)
  store i64 %15, ptr %9, align 8, !tbaa !13
  %16 = load i64, ptr %9, align 8, !tbaa !13
  %17 = icmp ule i64 %16, 4
  br i1 %17, label %18, label %21

18:                                               ; preds = %4
  %19 = load ptr, ptr %7, align 8, !tbaa !68
  %20 = getelementptr inbounds nuw %struct.TIFFDirEntry, ptr %19, i32 0, i32 3
  store ptr %20, ptr %5, align 8
  store i32 1, ptr %10, align 4
  br label %43

21:                                               ; preds = %4
  call void @llvm.lifetime.start.p0(i64 4, ptr %11) #3
  %22 = load ptr, ptr %7, align 8, !tbaa !68
  %23 = getelementptr inbounds nuw %struct.TIFFDirEntry, ptr %22, i32 0, i32 3
  %24 = load i32, ptr %23, align 4, !tbaa !90
  %25 = load i32, ptr %8, align 4, !tbaa !32
  %26 = add i32 %24, %25
  store i32 %26, ptr %11, align 4, !tbaa !32
  %27 = load i32, ptr %11, align 4, !tbaa !32
  %28 = icmp slt i32 %27, 0
  br i1 %28, label %36, label %29

29:                                               ; preds = %21
  %30 = load i32, ptr %11, align 4, !tbaa !32
  %31 = sext i32 %30 to i64
  %32 = load i64, ptr %9, align 8, !tbaa !13
  %33 = add i64 %31, %32
  %34 = call noundef i64 @_ZSt4sizeIKhLm18446744073709551615EEmRKN11OpenImageIO6v3_1_04spanIT_XT0_EEE(ptr noundef nonnull align 8 dereferenceable(16) %6)
  %35 = icmp ugt i64 %33, %34
  br i1 %35, label %36, label %37

36:                                               ; preds = %29, %21
  store ptr null, ptr %5, align 8
  store i32 1, ptr %10, align 4
  br label %42

37:                                               ; preds = %29
  %38 = call noundef ptr @_ZNK11OpenImageIO6v3_1_04spanIKhLm18446744073709551615EE4dataEv(ptr noundef nonnull align 8 dereferenceable(16) %6) #3
  %39 = load i32, ptr %11, align 4, !tbaa !32
  %40 = sext i32 %39 to i64
  %41 = getelementptr inbounds i8, ptr %38, i64 %40
  store ptr %41, ptr %5, align 8
  store i32 1, ptr %10, align 4
  br label %42

42:                                               ; preds = %37, %36
  call void @llvm.lifetime.end.p0(i64 4, ptr %11) #3
  br label %43

43:                                               ; preds = %42, %18
  call void @llvm.lifetime.end.p0(i64 8, ptr %9) #3
  %44 = load ptr, ptr %5, align 8
  ret ptr %44
}

; Function Attrs: mustprogress uwtable
define internal void @_ZN11OpenImageIO6v3_1_0L21version4uint8_handlerERKNS0_7TagInfoERK12TIFFDirEntryNS0_4spanIKhLm18446744073709551615EEERNS0_9ImageSpecEbi(ptr noundef nonnull align 8 dereferenceable(32) %0, ptr noundef nonnull align 4 dereferenceable(12) %1, ptr %2, i64 %3, ptr noundef nonnull align 8 dereferenceable(160) %4, i1 noundef zeroext %5, i32 noundef %6) #5 {
  %8 = alloca %"class.OpenImageIO::v3_1_0::span.20", align 8
  %9 = alloca ptr, align 8
  %10 = alloca ptr, align 8
  %11 = alloca ptr, align 8
  %12 = alloca i8, align 1
  %13 = alloca i32, align 4
  %14 = alloca ptr, align 8
  %15 = alloca %"class.OpenImageIO::v3_1_0::span.20", align 8
  %16 = alloca [4 x i32], align 16
  %17 = alloca %"class.OpenImageIO::v3_1_0::basic_string_view", align 8
  %18 = alloca %"struct.OpenImageIO::v3_1_0::TypeDesc", align 4
  %19 = getelementptr inbounds nuw { ptr, i64 }, ptr %8, i32 0, i32 0
  store ptr %2, ptr %19, align 8
  %20 = getelementptr inbounds nuw { ptr, i64 }, ptr %8, i32 0, i32 1
  store i64 %3, ptr %20, align 8
  store ptr %0, ptr %9, align 8, !tbaa !11
  store ptr %1, ptr %10, align 8, !tbaa !68
  store ptr %4, ptr %11, align 8, !tbaa !100
  %21 = zext i1 %5 to i8
  store i8 %21, ptr %12, align 1, !tbaa !102
  store i32 %6, ptr %13, align 4, !tbaa !32
  call void @llvm.lifetime.start.p0(i64 8, ptr %14) #3
  %22 = load ptr, ptr %10, align 8, !tbaa !68
  call void @llvm.memcpy.p0.p0.i64(ptr align 8 %15, ptr align 8 %8, i64 16, i1 false), !tbaa.struct !104
  %23 = load i32, ptr %13, align 4, !tbaa !32
  %24 = getelementptr inbounds nuw { ptr, i64 }, ptr %15, i32 0, i32 0
  %25 = load ptr, ptr %24, align 8
  %26 = getelementptr inbounds nuw { ptr, i64 }, ptr %15, i32 0, i32 1
  %27 = load i64, ptr %26, align 8
  %28 = call noundef ptr @_ZN11OpenImageIO6v3_1_03pvt7dataptrERK12TIFFDirEntryNS0_4spanIKhLm18446744073709551615EEEi(ptr noundef nonnull align 4 dereferenceable(12) %22, ptr %25, i64 %27, i32 noundef %23)
  store ptr %28, ptr %14, align 8, !tbaa !64
  %29 = load ptr, ptr %10, align 8, !tbaa !68
  %30 = call noundef i64 @_ZN11OpenImageIO6v3_1_014tiff_data_sizeERK12TIFFDirEntry(ptr noundef nonnull align 4 dereferenceable(12) %29)
  %31 = icmp eq i64 %30, 4
  br i1 %31, label %32, label %61

32:                                               ; preds = %7
  %33 = load ptr, ptr %14, align 8, !tbaa !64
  %34 = icmp ne ptr %33, null
  br i1 %34, label %35, label %61

35:                                               ; preds = %32
  call void @llvm.lifetime.start.p0(i64 16, ptr %16) #3
  %36 = load ptr, ptr %14, align 8, !tbaa !64
  %37 = getelementptr inbounds i8, ptr %36, i64 0
  %38 = load i8, ptr %37, align 1, !tbaa !75
  %39 = zext i8 %38 to i32
  store i32 %39, ptr %16, align 4, !tbaa !32
  %40 = getelementptr inbounds i32, ptr %16, i64 1
  %41 = load ptr, ptr %14, align 8, !tbaa !64
  %42 = getelementptr inbounds i8, ptr %41, i64 1
  %43 = load i8, ptr %42, align 1, !tbaa !75
  %44 = zext i8 %43 to i32
  store i32 %44, ptr %40, align 4, !tbaa !32
  %45 = getelementptr inbounds i32, ptr %16, i64 2
  %46 = load ptr, ptr %14, align 8, !tbaa !64
  %47 = getelementptr inbounds i8, ptr %46, i64 2
  %48 = load i8, ptr %47, align 1, !tbaa !75
  %49 = zext i8 %48 to i32
  store i32 %49, ptr %45, align 4, !tbaa !32
  %50 = getelementptr inbounds i32, ptr %16, i64 3
  %51 = load ptr, ptr %14, align 8, !tbaa !64
  %52 = getelementptr inbounds i8, ptr %51, i64 3
  %53 = load i8, ptr %52, align 1, !tbaa !75
  %54 = zext i8 %53 to i32
  store i32 %54, ptr %50, align 4, !tbaa !32
  %55 = load ptr, ptr %11, align 8, !tbaa !100
  %56 = load ptr, ptr %9, align 8, !tbaa !11
  %57 = getelementptr inbounds nuw %"struct.OpenImageIO::v3_1_0::TagInfo", ptr %56, i32 0, i32 1
  %58 = load ptr, ptr %57, align 8, !tbaa !23
  call void @_ZN11OpenImageIO6v3_1_017basic_string_viewIcSt11char_traitsIcEEC2EPKc(ptr noundef nonnull align 8 dereferenceable(16) %17, ptr noundef %58) #3
  call void @_ZN11OpenImageIO6v3_1_08TypeDescC2ENS1_8BASETYPEEi(ptr noundef nonnull align 4 dereferenceable(8) %18, i32 noundef 7, i32 noundef 4) #3
  %59 = getelementptr inbounds [4 x i32], ptr %16, i64 0, i64 0
  %60 = load i64, ptr %18, align 4
  call void @_ZN11OpenImageIO6v3_1_09ImageSpec9attributeENS0_17basic_string_viewIcSt11char_traitsIcEEENS0_8TypeDescEPKv(ptr noundef nonnull align 8 dereferenceable(160) %55, ptr noundef %17, i64 %60, ptr noundef %59)
  call void @llvm.lifetime.end.p0(i64 16, ptr %16) #3
  br label %61

61:                                               ; preds = %35, %32, %7
  call void @llvm.lifetime.end.p0(i64 8, ptr %14) #3
  ret void
}