; Function Attrs: mustprogress uwtable
define internal void @_ZN11OpenImageIO6v3_1_0L21version4uint8_handlerERKNS0_7TagInfoERK12TIFFDirEntryNS0_4spanIKhLm18446744073709551615EEERNS0_9ImageSpecEbi(ptr noundef nonnull readonly align 8 captures(none) dereferenceable(32) %0, ptr noundef nonnull readonly align 4 dereferenceable(12) %1, ptr readonly %2, i64 %3, ptr noundef nonnull align 8 dereferenceable(160) %4, i1 zeroext %5, i32 noundef %6) #4 {
  %8 = alloca [4 x i32], align 16
  %9 = alloca %"class.OpenImageIO::v3_1_0::basic_string_view", align 8
  %10 = getelementptr inbounds nuw i8, ptr %1, i64 2
  %11 = load i16, ptr %10, align 2, !tbaa !86
  %or.cond.i.i.i = icmp ugt i16 %11, 13
  br i1 %or.cond.i.i.i, label %_ZN11OpenImageIO6v3_1_014tiff_data_sizeERK12TIFFDirEntry.exit.i, label %12

12:                                               ; preds = %7
  %13 = zext nneg i16 %11 to i64
  %14 = getelementptr inbounds nuw [14 x i64], ptr @_ZZN11OpenImageIO6v3_1_014tiff_data_sizeE12TIFFDataTypeE5sizes, i64 0, i64 %13
  %15 = load i64, ptr %14, align 8, !tbaa !52
  br label %_ZN11OpenImageIO6v3_1_014tiff_data_sizeERK12TIFFDirEntry.exit.i

_ZN11OpenImageIO6v3_1_014tiff_data_sizeERK12TIFFDirEntry.exit.i: ; preds = %12, %7
  %.0.i.i.i = phi i64 [ %15, %12 ], [ -1, %7 ]
  %16 = getelementptr inbounds nuw i8, ptr %1, i64 4
  %17 = load i32, ptr %16, align 4, !tbaa !88
  %18 = zext i32 %17 to i64
  %19 = mul i64 %.0.i.i.i, %18
  %20 = icmp ult i64 %19, 5
  %21 = getelementptr inbounds nuw i8, ptr %1, i64 8
  br i1 %20, label %_ZN11OpenImageIO6v3_1_03pvt7dataptrERK12TIFFDirEntryNS0_4spanIKhLm18446744073709551615EEEi.exit, label %22

22:                                               ; preds = %_ZN11OpenImageIO6v3_1_014tiff_data_sizeERK12TIFFDirEntry.exit.i
  %23 = load i32, ptr %21, align 4, !tbaa !89
  %24 = add i32 %23, %6
  %25 = icmp slt i32 %24, 0
  br i1 %25, label %_ZN11OpenImageIO6v3_1_03pvt7dataptrERK12TIFFDirEntryNS0_4spanIKhLm18446744073709551615EEEi.exit, label %26

26:                                               ; preds = %22
  %27 = zext nneg i32 %24 to i64
  %28 = add i64 %19, %27
  %29 = icmp ugt i64 %28, %3
  %30 = getelementptr inbounds nuw i8, ptr %2, i64 %27
  %spec.select.i = select i1 %29, ptr null, ptr %30
  br label %_ZN11OpenImageIO6v3_1_03pvt7dataptrERK12TIFFDirEntryNS0_4spanIKhLm18446744073709551615EEEi.exit

_ZN11OpenImageIO6v3_1_03pvt7dataptrERK12TIFFDirEntryNS0_4spanIKhLm18446744073709551615EEEi.exit: ; preds = %_ZN11OpenImageIO6v3_1_014tiff_data_sizeERK12TIFFDirEntry.exit.i, %22, %26
  %.0.i = phi ptr [ null, %22 ], [ %spec.select.i, %26 ], [ %21, %_ZN11OpenImageIO6v3_1_014tiff_data_sizeERK12TIFFDirEntry.exit.i ]
  br i1 %or.cond.i.i.i, label %_ZN11OpenImageIO6v3_1_014tiff_data_sizeERK12TIFFDirEntry.exit, label %31

31:                                               ; preds = %_ZN11OpenImageIO6v3_1_03pvt7dataptrERK12TIFFDirEntryNS0_4spanIKhLm18446744073709551615EEEi.exit
  %32 = zext nneg i16 %11 to i64
  %33 = getelementptr inbounds nuw [14 x i64], ptr @_ZZN11OpenImageIO6v3_1_014tiff_data_sizeE12TIFFDataTypeE5sizes, i64 0, i64 %32
  %34 = load i64, ptr %33, align 8, !tbaa !52
  br label %_ZN11OpenImageIO6v3_1_014tiff_data_sizeERK12TIFFDirEntry.exit

_ZN11OpenImageIO6v3_1_014tiff_data_sizeERK12TIFFDirEntry.exit: ; preds = %_ZN11OpenImageIO6v3_1_03pvt7dataptrERK12TIFFDirEntryNS0_4spanIKhLm18446744073709551615EEEi.exit, %31
  %.0.i.i = phi i64 [ %34, %31 ], [ -1, %_ZN11OpenImageIO6v3_1_03pvt7dataptrERK12TIFFDirEntryNS0_4spanIKhLm18446744073709551615EEEi.exit ]
  %35 = mul i64 %.0.i.i, %18
  %36 = icmp eq i64 %35, 4
  %37 = icmp ne ptr %.0.i, null
  %or.cond = and i1 %37, %36
  br i1 %or.cond, label %38, label %59

38:                                               ; preds = %_ZN11OpenImageIO6v3_1_014tiff_data_sizeERK12TIFFDirEntry.exit
  call void @llvm.lifetime.start.p0(i64 16, ptr nonnull %8) #34
  %39 = load i8, ptr %.0.i, align 1, !tbaa !55
  %40 = zext i8 %39 to i32
  store i32 %40, ptr %8, align 16, !tbaa !73
  %41 = getelementptr inbounds nuw i8, ptr %8, i64 4
  %42 = getelementptr inbounds nuw i8, ptr %.0.i, i64 1
  %43 = load i8, ptr %42, align 1, !tbaa !55
  %44 = zext i8 %43 to i32
  store i32 %44, ptr %41, align 4, !tbaa !73
  %45 = getelementptr inbounds nuw i8, ptr %8, i64 8
  %46 = getelementptr inbounds nuw i8, ptr %.0.i, i64 2
  %47 = load i8, ptr %46, align 1, !tbaa !55
  %48 = zext i8 %47 to i32
  store i32 %48, ptr %45, align 8, !tbaa !73
  %49 = getelementptr inbounds nuw i8, ptr %8, i64 12
  %50 = getelementptr inbounds nuw i8, ptr %.0.i, i64 3
  %51 = load i8, ptr %50, align 1, !tbaa !55
  %52 = zext i8 %51 to i32
  store i32 %52, ptr %49, align 4, !tbaa !73
  %53 = getelementptr inbounds nuw i8, ptr %0, i64 8
  %54 = load ptr, ptr %53, align 8, !tbaa !64
  store ptr %54, ptr %9, align 8, !tbaa !3
  %.not.i = icmp eq ptr %54, null
  br i1 %.not.i, label %_ZN11OpenImageIO6v3_1_017basic_string_viewIcSt11char_traitsIcEEC2EPKc.exit, label %55

55:                                               ; preds = %38
  %56 = tail call noundef i64 @strlen(ptr noundef nonnull dereferenceable(1) %54) #34
  br label %_ZN11OpenImageIO6v3_1_017basic_string_viewIcSt11char_traitsIcEEC2EPKc.exit

_ZN11OpenImageIO6v3_1_017basic_string_viewIcSt11char_traitsIcEEC2EPKc.exit: ; preds = %38, %55
  %57 = phi i64 [ %56, %55 ], [ 0, %38 ]
  %58 = getelementptr inbounds nuw i8, ptr %9, i64 8
  store i64 %57, ptr %58, align 8, !tbaa !10
  call void @_ZN11OpenImageIO6v3_1_09ImageSpec9attributeENS0_17basic_string_viewIcSt11char_traitsIcEEENS0_8TypeDescEPKv(ptr noundef nonnull align 8 dereferenceable(160) %4, ptr noundef nonnull %9, i64 17179869447, ptr noundef nonnull %8)
  call void @llvm.lifetime.end.p0(i64 16, ptr nonnull %8) #34
  br label %59

59:                                               ; preds = %_ZN11OpenImageIO6v3_1_017basic_string_viewIcSt11char_traitsIcEEC2EPKc.exit, %_ZN11OpenImageIO6v3_1_014tiff_data_sizeERK12TIFFDirEntry.exit
  ret void
}